target datalayout = "e-m:e-p270:32:32-p271:32:32-p272:64:64-i64:64-i128:128-f80:128-n8:16:32:64-S128"
target triple = "x86_64-pc-linux-gnu"

%struct.Fraig_NodeStruct_t_ = type { i32, i32, i32, i32, i32, i32, i32, ptr, ptr, ptr, ptr, ptr, ptr, ptr, ptr, i32, i32, ptr, ptr, ptr, ptr, ptr, ptr, ptr }
%struct.Fraig_ManStruct_t_ = type { ptr, ptr, ptr, ptr, ptr, ptr, ptr, ptr, ptr, i32, i32, i32, i32, i32, i32, i32, i32, i32, i32, i32, i32, i64, i32, i32, i32, i32, i32, ptr, ptr, ptr, ptr, ptr, i32, ptr, ptr, ptr, ptr, ptr, ptr, i32, ptr, ptr, ptr, ptr, i32, i32, i32, i32, i32, i32, i32, i32, i32, i32, i32, i32, i32, i32, i32, i32, i32, i32, i32, i64, i64, i64, i64, i64, i64, i64, i64, i64, i64, i64, i64 }

; Function Attrs: nounwind uwtable
define i32 @Fraig_MarkTfi3_rec(ptr noundef %0, ptr noundef %1) #0 {
  %3 = alloca i32, align 4
  %4 = alloca ptr, align 8
  %5 = alloca ptr, align 8
  store ptr %0, ptr %4, align 8, !tbaa !3
  store ptr %1, ptr %5, align 8, !tbaa !8
  %6 = load ptr, ptr %5, align 8, !tbaa !8
  %7 = getelementptr inbounds nuw %struct.Fraig_NodeStruct_t_, ptr %6, i32 0, i32 4
  %8 = load i32, ptr %7, align 8, !tbaa !54
  %9 = load ptr, ptr %4, align 8, !tbaa !3
  %10 = getelementptr inbounds nuw %struct.Fraig_ManStruct_t_, ptr %9, i32 0, i32 22
  %11 = load i32, ptr %10, align 8, !tbaa !55
  %12 = icmp eq i32 %8, %11
  br i1 %12, label %13, label %14

13:                                               ; preds = %2
  store i32 1, ptr %3, align 4
  br label %58

14:                                               ; preds = %2
  %15 = load ptr, ptr %5, align 8, !tbaa !8
  %16 = getelementptr inbounds nuw %struct.Fraig_NodeStruct_t_, ptr %15, i32 0, i32 4
  %17 = load i32, ptr %16, align 8, !tbaa !54
  %18 = load ptr, ptr %4, align 8, !tbaa !3
  %19 = getelementptr inbounds nuw %struct.Fraig_ManStruct_t_, ptr %18, i32 0, i32 22
  %20 = load i32, ptr %19, align 8, !tbaa !55
  %21 = sub nsw i32 %20, 1
  %22 = icmp eq i32 %17, %21
  br i1 %22, label %23, label %29

23:                                               ; preds = %14
  %24 = load ptr, ptr %4, align 8, !tbaa !3
  %25 = getelementptr inbounds nuw %struct.Fraig_ManStruct_t_, ptr %24, i32 0, i32 22
  %26 = load i32, ptr %25, align 8, !tbaa !55
  %27 = load ptr, ptr %5, align 8, !tbaa !8
  %28 = getelementptr inbounds nuw %struct.Fraig_NodeStruct_t_, ptr %27, i32 0, i32 4
  store i32 %26, ptr %28, align 8, !tbaa !54
  store i32 1, ptr %3, align 4
  br label %58

29:                                               ; preds = %14
  %30 = load ptr, ptr %4, align 8, !tbaa !3
  %31 = getelementptr inbounds nuw %struct.Fraig_ManStruct_t_, ptr %30, i32 0, i32 22
  %32 = load i32, ptr %31, align 8, !tbaa !55
  %33 = load ptr, ptr %5, align 8, !tbaa !8
  %34 = getelementptr inbounds nuw %struct.Fraig_NodeStruct_t_, ptr %33, i32 0, i32 4
  store i32 %32, ptr %34, align 8, !tbaa !54
  %35 = load ptr, ptr %5, align 8, !tbaa !8
  %36 = getelementptr inbounds nuw %struct.Fraig_NodeStruct_t_, ptr %35, i32 0, i32 1
  %37 = load i32, ptr %36, align 4, !tbaa !56
  %38 = icmp sge i32 %37, 0
  br i1 %38, label %39, label %40

39:                                               ; preds = %29
  store i32 0, ptr %3, align 4
  br label %58

40:                                               ; preds = %29
  %41 = load ptr, ptr %4, align 8, !tbaa !3
  %42 = load ptr, ptr %5, align 8, !tbaa !8
  %43 = getelementptr inbounds nuw %struct.Fraig_NodeStruct_t_, ptr %42, i32 0, i32 7
  %44 = load ptr, ptr %43, align 8, !tbaa !57
  %45 = ptrtoint ptr %44 to i64
  %46 = and i64 %45, -2
  %47 = inttoptr i64 %46 to ptr
  %48 = call i32 @Fraig_MarkTfi3_rec(ptr noundef %41, ptr noundef %47)
  %49 = load ptr, ptr %4, align 8, !tbaa !3
  %50 = load ptr, ptr %5, align 8, !tbaa !8
  %51 = getelementptr inbounds nuw %struct.Fraig_NodeStruct_t_, ptr %50, i32 0, i32 8
  %52 = load ptr, ptr %51, align 8, !tbaa !58
  %53 = ptrtoint ptr %52 to i64
  %54 = and i64 %53, -2
  %55 = inttoptr i64 %54 to ptr
  %56 = call i32 @Fraig_MarkTfi3_rec(ptr noundef %49, ptr noundef %55)
  %57 = mul nsw i32 %48, %56
  store i32 %57, ptr %3, align 4
  br label %58

58:                                               ; preds = %40, %39, %23, %13
  %59 = load i32, ptr %3, align 4
  ret i32 %59
}