; Function Attrs: nofree nosync nounwind memory(readwrite, inaccessiblemem: none) uwtable
define range(i32 0, 2) i32 @Fraig_MarkTfi3_rec(ptr noundef readonly captures(none) %0, ptr noundef captures(none) %1) local_unnamed_addr #4 {
  %3 = getelementptr inbounds nuw i8, ptr %0, i64 128
  %4 = getelementptr inbounds nuw i8, ptr %1, i64 16
  %5 = load i32, ptr %4, align 8, !tbaa !56
  %6 = load i32, ptr %3, align 8, !tbaa !57
  %7 = icmp eq i32 %5, %6
  br i1 %7, label %.loopexit, label %.lr.ph

.lr.ph:                                           ; preds = %2, %tailrecurse
  %8 = phi i32 [ %31, %tailrecurse ], [ %6, %2 ]
  %9 = phi i32 [ %30, %tailrecurse ], [ %5, %2 ]
  %10 = phi ptr [ %29, %tailrecurse ], [ %4, %2 ]
  %.tr1522 = phi ptr [ %27, %tailrecurse ], [ %1, %2 ]
  %accumulator.tr21 = phi i32 [ %28, %tailrecurse ], [ 1, %2 ]
  %11 = add nsw i32 %8, -1
  %12 = icmp eq i32 %9, %11
  store i32 %8, ptr %10, align 8, !tbaa !56
  br i1 %12, label %.loopexit.loopexit, label %13

13:                                               ; preds = %.lr.ph
  %14 = getelementptr inbounds nuw i8, ptr %.tr1522, i64 4
  %15 = load i32, ptr %14, align 4, !tbaa !58
  %16 = icmp sgt i32 %15, -1
  br i1 %16, label %.loopexit.loopexit, label %tailrecurse

tailrecurse:                                      ; preds = %13
  %17 = getelementptr inbounds nuw i8, ptr %.tr1522, i64 32
  %18 = load ptr, ptr %17, align 8, !tbaa !59
  %19 = ptrtoint ptr %18 to i64
  %20 = and i64 %19, -2
  %21 = inttoptr i64 %20 to ptr
  %22 = tail call i32 @Fraig_MarkTfi3_rec(ptr noundef nonnull %0, ptr noundef %21)
  %23 = getelementptr inbounds nuw i8, ptr %.tr1522, i64 40
  %24 = load ptr, ptr %23, align 8, !tbaa !60
  %25 = ptrtoint ptr %24 to i64
  %26 = and i64 %25, -2
  %27 = inttoptr i64 %26 to ptr
  %28 = mul nuw nsw i32 %22, %accumulator.tr21
  %29 = getelementptr inbounds nuw i8, ptr %27, i64 16
  %30 = load i32, ptr %29, align 8, !tbaa !56
  %31 = load i32, ptr %3, align 8, !tbaa !57
  %32 = icmp eq i32 %30, %31
  br i1 %32, label %.loopexit.loopexit, label %.lr.ph

.loopexit.loopexit:                               ; preds = %.lr.ph, %13, %tailrecurse
  %accumulator.tr20.ph = phi i32 [ %28, %tailrecurse ], [ %accumulator.tr21, %13 ], [ %accumulator.tr21, %.lr.ph ]
  %.0.ph = phi i32 [ 1, %tailrecurse ], [ 0, %13 ], [ 1, %.lr.ph ]
  %33 = mul nuw nsw i32 %.0.ph, %accumulator.tr20.ph
  br label %.loopexit

.loopexit:                                        ; preds = %.loopexit.loopexit, %2
  %accumulator.ret.tr = phi i32 [ 1, %2 ], [ %33, %.loopexit.loopexit ]
  ret i32 %accumulator.ret.tr
}